target datalayout = "e-m:e-p270:32:32-p271:32:32-p272:64:64-i64:64-i128:128-f80:128-n8:16:32:64-S128"
target triple = "x86_64-pc-linux-gnu"

%struct.AVChannelLayout = type { i32, i32, %union.anon.2, ptr }
%union.anon.2 = type { i64 }
%struct.AACDecContext = type { ptr, ptr, %struct.AACDecDSP, %struct.AACDecProc, ptr, i32, %struct.DynamicRangeControl, [4 x [64 x ptr]], [4 x [64 x ptr]], i32, i32, [8 x i8], %union.anon, %union.anon.0, ptr, ptr, ptr, ptr, ptr, ptr, ptr, ptr, ptr, ptr, ptr, ptr, ptr, ptr, ptr, ptr, ptr, ptr, %union.anon.1, i32, [64 x ptr], i32, i32, i32, [2 x %struct.OutputConfiguration], i32, i32, i32, i32, i32, i32, [8 x i8] }
%struct.AACDecDSP = type { ptr, ptr, ptr, ptr, ptr, ptr, ptr, ptr, ptr, ptr, ptr, ptr, ptr, ptr, ptr }
%struct.AACDecProc = type { ptr, ptr, ptr, ptr, ptr, ptr }
%struct.DynamicRangeControl = type { i32, [17 x i32], [17 x i32], [64 x i32], i32, i32, [17 x i32], i32 }
%union.anon = type { [1024 x i32] }
%union.anon.0 = type { [128 x i32] }
%union.anon.1 = type { ptr }
%struct.OutputConfiguration = type { %struct.MPEG4AudioConfig, [256 x [3 x i8]], i32, %struct.AVChannelLayout, i32, %struct.AACUSACConfig }
%struct.MPEG4AudioConfig = type { i32, i32, i32, i32, i32, i32, i32, i32, i32, i32, i32, i32 }
%struct.AACUSACConfig = type { i8, i16, i16, [64 x %struct.AACUsacElemConfig], i32, %struct.anon.6 }
%struct.AACUsacElemConfig = type { i32, i8, i8, %struct.anon, %struct.anon.4, %struct.anon.5 }
%struct.anon = type { i32, i8, %struct.anon.3 }
%struct.anon.3 = type { i8, i8, i8, i8, i8, i8, i8, i8 }
%struct.anon.4 = type { i8, i8, i8, i8, i8, i8, i8, i8, i8 }
%struct.anon.5 = type { i32, i8, i32, i32, ptr }
%struct.anon.6 = type { i8, i8, [64 x %struct.AACUSACLoudnessInfo], i8, i8, [64 x %struct.AACUSACLoudnessInfo] }
%struct.AACUSACLoudnessInfo = type <{ i16, %struct.anon.7, %struct.anon.8, i8, [16 x %struct.anon.9], i8 }>
%struct.anon.7 = type { i16 }
%struct.anon.8 = type { i32 }
%struct.anon.9 = type { i8, i8, i8 }
%struct.AVCodecContext = type { ptr, i32, i32, ptr, i32, i32, ptr, ptr, ptr, i64, i32, i32, ptr, i32, %struct.AVRational, %struct.AVRational, %struct.AVRational, i32, i32, i32, i32, i32, %struct.AVRational, i32, i32, i32, i32, i32, i32, i32, i32, i32, i32, i32, ptr, ptr, i32, float, float, float, float, float, float, float, float, float, i32, i32, i32, i32, i32, i32, i32, i32, i32, i32, i32, i32, ptr, ptr, ptr, i32, i32, i32, i32, i32, i32, i32, i32, i32, i32, %struct.AVChannelLayout, i32, i32, i32, i32, i32, i32, i32, i32, ptr, i32, i32, i32, float, float, i32, i32, i32, i32, i32, ptr, i64, i64, float, float, i32, i32, ptr, ptr, i32, i32, i32, i32, i32, ptr, ptr, ptr, ptr, i32, i32, [8 x i64], i32, i32, i32, i32, i32, i32, i32, ptr, ptr, i32, i32, i32, i32, i32, i32, i32, i32, i32, i32, ptr, ptr, i32, i32, ptr, ptr, ptr, ptr, i32, i32, i64, i32, i32, i64, ptr, i64, ptr, i32, ptr, i32 }
%struct.AVRational = type { i32, i32 }

@.str.1 = private unnamed_addr constant [44 x i8] c"invalid default channel configuration (%d)\0A\00", align 1
@ff_tags_per_config = external hidden constant [16 x i8], align 16
@ff_aac_channel_layout_map = external hidden constant [16 x [16 x [3 x i8]]], align 16
@.str.2 = private unnamed_addr constant [163 x i8] c"Assuming an incorrectly encoded 7.1 channel layout instead of a spec-compliant 7.1(wide) layout, use -strict %d to decode according to the specification instead.\0A\00", align 1

; Function Attrs: nounwind uwtable
define i32 @ff_aac_set_default_channel_config(ptr noundef %0, ptr noundef %1, ptr noundef %2, ptr noundef %3, i32 noundef %4) #0 {
  %6 = alloca i32, align 4
  %7 = alloca ptr, align 8
  %8 = alloca ptr, align 8
  %9 = alloca ptr, align 8
  %10 = alloca ptr, align 8
  %11 = alloca i32, align 4
  store ptr %0, ptr %7, align 8, !tbaa !4
  store ptr %1, ptr %8, align 8, !tbaa !22
  store ptr %2, ptr %9, align 8, !tbaa !9
  store ptr %3, ptr %10, align 8, !tbaa !53
  store i32 %4, ptr %11, align 4, !tbaa !11
  %12 = load i32, ptr %11, align 4, !tbaa !11
  %13 = icmp slt i32 %12, 1
  br i1 %13, label %23, label %14

14:                                               ; preds = %5
  %15 = load i32, ptr %11, align 4, !tbaa !11
  %16 = icmp sgt i32 %15, 7
  br i1 %16, label %17, label %20

17:                                               ; preds = %14
  %18 = load i32, ptr %11, align 4, !tbaa !11
  %19 = icmp slt i32 %18, 11
  br i1 %19, label %23, label %20

20:                                               ; preds = %17, %14
  %21 = load i32, ptr %11, align 4, !tbaa !11
  %22 = icmp sgt i32 %21, 14
  br i1 %22, label %23, label %26

23:                                               ; preds = %20, %17, %5
  %24 = load ptr, ptr %8, align 8, !tbaa !22
  %25 = load i32, ptr %11, align 4, !tbaa !11
  call void (ptr, i32, ptr, ...) @av_log(ptr noundef %24, i32 noundef 16, ptr noundef @.str.1, i32 noundef %25)
  store i32 -1094995529, ptr %6, align 4
  br label %66

26:                                               ; preds = %20
  %27 = load i32, ptr %11, align 4, !tbaa !11
  %28 = sext i32 %27 to i64
  %29 = getelementptr inbounds [16 x i8], ptr @ff_tags_per_config, i64 0, i64 %28
  %30 = load i8, ptr %29, align 1, !tbaa !32
  %31 = sext i8 %30 to i32
  %32 = load ptr, ptr %10, align 8, !tbaa !53
  store i32 %31, ptr %32, align 4, !tbaa !11
  %33 = load ptr, ptr %9, align 8, !tbaa !9
  %34 = load i32, ptr %11, align 4, !tbaa !11
  %35 = sub nsw i32 %34, 1
  %36 = sext i32 %35 to i64
  %37 = getelementptr inbounds [16 x [16 x [3 x i8]]], ptr @ff_aac_channel_layout_map, i64 0, i64 %36
  %38 = getelementptr inbounds [16 x [3 x i8]], ptr %37, i64 0, i64 0
  %39 = load ptr, ptr %10, align 8, !tbaa !53
  %40 = load i32, ptr %39, align 4, !tbaa !11
  %41 = sext i32 %40 to i64
  %42 = mul i64 %41, 3
  call void @llvm.memcpy.p0.p0.i64(ptr align 1 %33, ptr align 16 %38, i64 %42, i1 false)
  %43 = load i32, ptr %11, align 4, !tbaa !11
  %44 = icmp eq i32 %43, 7
  br i1 %44, label %45, label %65

45:                                               ; preds = %26
  %46 = load ptr, ptr %8, align 8, !tbaa !22
  %47 = getelementptr inbounds nuw %struct.AVCodecContext, ptr %46, i32 0, i32 101
  %48 = load i32, ptr %47, align 4, !tbaa !84
  %49 = icmp slt i32 %48, 1
  br i1 %49, label %50, label %65

50:                                               ; preds = %45
  %51 = load ptr, ptr %9, align 8, !tbaa !9
  %52 = getelementptr inbounds [3 x i8], ptr %51, i64 2
  %53 = getelementptr inbounds [3 x i8], ptr %52, i64 0, i64 2
  store i8 3, ptr %53, align 1, !tbaa !32
  %54 = load ptr, ptr %7, align 8, !tbaa !4
  %55 = icmp ne ptr %54, null
  br i1 %55, label %56, label %62

56:                                               ; preds = %50
  %57 = load ptr, ptr %7, align 8, !tbaa !4
  %58 = getelementptr inbounds nuw %struct.AACDecContext, ptr %57, i32 0, i32 41
  %59 = load i32, ptr %58, align 8, !tbaa !85
  %60 = add i32 %59, 1
  store i32 %60, ptr %58, align 8, !tbaa !85
  %61 = icmp ne i32 %59, 0
  br i1 %61, label %64, label %62

62:                                               ; preds = %56, %50
  %63 = load ptr, ptr %8, align 8, !tbaa !22
  call void (ptr, i32, ptr, ...) @av_log(ptr noundef %63, i32 noundef 32, ptr noundef @.str.2, i32 noundef 1)
  br label %64

64:                                               ; preds = %62, %56
  br label %65

65:                                               ; preds = %64, %45, %26
  store i32 0, ptr %6, align 4
  br label %66

66:                                               ; preds = %65, %23
  %67 = load i32, ptr %6, align 4
  ret i32 %67
}