; Function Attrs: nounwind uwtable
define range(i32 -1094995529, 1) i32 @ff_aac_set_default_channel_config(ptr noundef captures(address_is_null) %0, ptr noundef %1, ptr noundef writeonly captures(none) %2, ptr noundef writeonly captures(none) %3, i32 noundef %4) local_unnamed_addr #0 {
  %6 = icmp slt i32 %4, 1
  br i1 %6, label %10, label %7

7:                                                ; preds = %5
  %8 = add nsw i32 %4, -8
  %or.cond = icmp ult i32 %8, 3
  %9 = icmp samesign ugt i32 %4, 14
  %or.cond3 = or i1 %9, %or.cond
  br i1 %or.cond3, label %10, label %11

10:                                               ; preds = %7, %5
  tail call void (ptr, i32, ptr, ...) @av_log(ptr noundef %1, i32 noundef 16, ptr noundef nonnull @.str.1, i32 noundef %4) #13
  br label %33

11:                                               ; preds = %7
  %12 = zext nneg i32 %4 to i64
  %13 = getelementptr inbounds nuw [16 x i8], ptr @ff_tags_per_config, i64 0, i64 %12
  %14 = load i8, ptr %13, align 1, !tbaa !27
  %15 = sext i8 %14 to i32
  store i32 %15, ptr %3, align 4, !tbaa !17
  %16 = add nsw i32 %4, -1
  %17 = zext nneg i32 %16 to i64
  %18 = getelementptr inbounds nuw [16 x [16 x [3 x i8]]], ptr @ff_aac_channel_layout_map, i64 0, i64 %17
  %19 = sext i8 %14 to i64
  %20 = mul nsw i64 %19, 3
  tail call void @llvm.memcpy.p0.p0.i64(ptr align 1 %2, ptr nonnull align 16 %18, i64 %20, i1 false)
  %21 = icmp eq i32 %4, 7
  br i1 %21, label %22, label %33

22:                                               ; preds = %11
  %23 = getelementptr inbounds nuw i8, ptr %1, i64 516
  %24 = load i32, ptr %23, align 4, !tbaa !83
  %25 = icmp slt i32 %24, 1
  br i1 %25, label %26, label %33

26:                                               ; preds = %22
  %27 = getelementptr inbounds nuw i8, ptr %2, i64 8
  store i8 3, ptr %27, align 1, !tbaa !27
  %.not = icmp eq ptr %0, null
  br i1 %.not, label %32, label %28

28:                                               ; preds = %26
  %29 = getelementptr inbounds nuw i8, ptr %0, i64 34872
  %30 = load i32, ptr %29, align 8, !tbaa !84
  %31 = add i32 %30, 1
  store i32 %31, ptr %29, align 8, !tbaa !84
  %.not22 = icmp eq i32 %30, 0
  br i1 %.not22, label %32, label %33

32:                                               ; preds = %28, %26
  tail call void (ptr, i32, ptr, ...) @av_log(ptr noundef nonnull %1, i32 noundef 32, ptr noundef nonnull @.str.2, i32 noundef 1) #13
  br label %33

33:                                               ; preds = %11, %22, %32, %28, %10
  %.0 = phi i32 [ -1094995529, %10 ], [ 0, %28 ], [ 0, %32 ], [ 0, %22 ], [ 0, %11 ]
  ret i32 %.0
}